target datalayout = "e-m:e-p270:32:32-p271:32:32-p272:64:64-i64:64-i128:128-f80:128-n8:16:32:64-S128"
target triple = "x86_64-pc-linux-gnu"

%class.GrowableArrayView = type { %class.GrowableArrayBase, ptr }
%class.GrowableArrayBase = type { i32, i32 }
%class.TraceMemoryManagerStats = type { ptr, i32, ptr, i8, i8, i8, i8, i8, i8, i8, i8 }

@_ZN13MemoryService11_pools_listE = hidden global ptr null, align 8

; Function Attrs: mustprogress nounwind uwtable
define linkonce_odr hidden noundef nonnull align 8 dereferenceable(8) ptr @_ZN17GrowableArrayViewIP10MemoryPoolE2atEi(ptr noundef nonnull align 8 dereferenceable(16) %0, i32 noundef %1) #1 comdat align 2 {
  %3 = alloca ptr, align 8
  %4 = alloca i32, align 4
  store ptr %0, ptr %3, align 8
  store i32 %1, ptr %4, align 4
  %5 = load ptr, ptr %3, align 8
  %6 = getelementptr inbounds %class.GrowableArrayView, ptr %5, i32 0, i32 1
  %7 = load ptr, ptr %6, align 8
  %8 = load i32, ptr %4, align 4
  %9 = sext i32 %8 to i64
  %10 = getelementptr inbounds ptr, ptr %7, i64 %9
  ret ptr %10
}

; Function Attrs: mustprogress nounwind uwtable
define linkonce_odr hidden noundef i32 @_ZNK17GrowableArrayBase6lengthEv(ptr noundef nonnull align 4 dereferenceable(8) %0) #1 comdat align 2 {
  %2 = alloca ptr, align 8
  store ptr %0, ptr %2, align 8
  %3 = load ptr, ptr %2, align 8
  %4 = getelementptr inbounds %class.GrowableArrayBase, ptr %3, i32 0, i32 0
  %5 = load i32, ptr %4, align 4
  ret i32 %5
}

; Function Attrs: mustprogress nounwind uwtable
define hidden void @_ZN13MemoryService8gc_beginEP15GCMemoryManagerbbbb(ptr noundef %0, i1 noundef zeroext %1, i1 noundef zeroext %2, i1 noundef zeroext %3, i1 noundef zeroext %4) #1 align 2 {
  %6 = alloca ptr, align 8
  %7 = alloca i8, align 1
  %8 = alloca i8, align 1
  %9 = alloca i8, align 1
  %10 = alloca i8, align 1
  %11 = alloca i32, align 4
  %12 = alloca ptr, align 8
  store ptr %0, ptr %6, align 8
  %13 = zext i1 %1 to i8
  store i8 %13, ptr %7, align 1
  %14 = zext i1 %2 to i8
  store i8 %14, ptr %8, align 1
  %15 = zext i1 %3 to i8
  store i8 %15, ptr %9, align 1
  %16 = zext i1 %4 to i8
  store i8 %16, ptr %10, align 1
  %17 = load ptr, ptr %6, align 8
  %18 = load i8, ptr %7, align 1
  %19 = trunc i8 %18 to i1
  %20 = load i8, ptr %9, align 1
  %21 = trunc i8 %20 to i1
  %22 = load i8, ptr %8, align 1
  %23 = trunc i8 %22 to i1
  call void @_ZN15GCMemoryManager8gc_beginEbbb(ptr noundef nonnull align 8 dereferenceable(191) %17, i1 noundef zeroext %19, i1 noundef zeroext %21, i1 noundef zeroext %23)
  %24 = load i8, ptr %10, align 1
  %25 = trunc i8 %24 to i1
  br i1 %25, label %26, label %42

26:                                               ; preds = %5
  store i32 0, ptr %11, align 4
  br label %27

27:                                               ; preds = %38, %26
  %28 = load i32, ptr %11, align 4
  %29 = load ptr, ptr @_ZN13MemoryService11_pools_listE, align 8
  %30 = call noundef i32 @_ZNK17GrowableArrayBase6lengthEv(ptr noundef nonnull align 4 dereferenceable(8) %29)
  %31 = icmp slt i32 %28, %30
  br i1 %31, label %32, label %41

32:                                               ; preds = %27
  %33 = load ptr, ptr @_ZN13MemoryService11_pools_listE, align 8
  %34 = load i32, ptr %11, align 4
  %35 = call noundef nonnull align 8 dereferenceable(8) ptr @_ZN17GrowableArrayViewIP10MemoryPoolE2atEi(ptr noundef nonnull align 8 dereferenceable(16) %33, i32 noundef %34)
  %36 = load ptr, ptr %35, align 8
  store ptr %36, ptr %12, align 8
  %37 = load ptr, ptr %12, align 8
  call void @_ZN10MemoryPool24record_peak_memory_usageEv(ptr noundef nonnull align 8 dereferenceable(201) %37)
  br label %38

38:                                               ; preds = %32
  %39 = load i32, ptr %11, align 4
  %40 = add nsw i32 %39, 1
  store i32 %40, ptr %11, align 4
  br label %27, !llvm.loop !12

41:                                               ; preds = %27
  br label %42

42:                                               ; preds = %41, %5
  ret void
}

; Function Attrs: mustprogress nounwind uwtable
define hidden void @_ZN23TraceMemoryManagerStats10initializeEP15GCMemoryManagerN7GCCause5CauseEPKcbbbbbbbb(ptr noundef nonnull align 8 dereferenceable(32) %0, ptr noundef %1, i32 noundef %2, ptr noundef %3, i1 noundef zeroext %4, i1 noundef zeroext %5, i1 noundef zeroext %6, i1 noundef zeroext %7, i1 noundef zeroext %8, i1 noundef zeroext %9, i1 noundef zeroext %10, i1 noundef zeroext %11) #1 align 2 {
  %13 = alloca ptr, align 8
  %14 = alloca ptr, align 8
  %15 = alloca i32, align 4
  %16 = alloca ptr, align 8
  %17 = alloca i8, align 1
  %18 = alloca i8, align 1
  %19 = alloca i8, align 1
  %20 = alloca i8, align 1
  %21 = alloca i8, align 1
  %22 = alloca i8, align 1
  %23 = alloca i8, align 1
  %24 = alloca i8, align 1
  store ptr %0, ptr %13, align 8
  store ptr %1, ptr %14, align 8
  store i32 %2, ptr %15, align 4
  store ptr %3, ptr %16, align 8
  %25 = zext i1 %4 to i8
  store i8 %25, ptr %17, align 1
  %26 = zext i1 %5 to i8
  store i8 %26, ptr %18, align 1
  %27 = zext i1 %6 to i8
  store i8 %27, ptr %19, align 1
  %28 = zext i1 %7 to i8
  store i8 %28, ptr %20, align 1
  %29 = zext i1 %8 to i8
  store i8 %29, ptr %21, align 1
  %30 = zext i1 %9 to i8
  store i8 %30, ptr %22, align 1
  %31 = zext i1 %10 to i8
  store i8 %31, ptr %23, align 1
  %32 = zext i1 %11 to i8
  store i8 %32, ptr %24, align 1
  %33 = load ptr, ptr %13, align 8
  %34 = load ptr, ptr %14, align 8
  %35 = getelementptr inbounds %class.TraceMemoryManagerStats, ptr %33, i32 0, i32 0
  store ptr %34, ptr %35, align 8
  %36 = load i32, ptr %15, align 4
  %37 = getelementptr inbounds %class.TraceMemoryManagerStats, ptr %33, i32 0, i32 1
  store i32 %36, ptr %37, align 8
  %38 = load ptr, ptr %16, align 8
  %39 = getelementptr inbounds %class.TraceMemoryManagerStats, ptr %33, i32 0, i32 2
  store ptr %38, ptr %39, align 8
  %40 = load i8, ptr %17, align 1
  %41 = trunc i8 %40 to i1
  %42 = getelementptr inbounds %class.TraceMemoryManagerStats, ptr %33, i32 0, i32 3
  %43 = zext i1 %41 to i8
  store i8 %43, ptr %42, align 8
  %44 = load i8, ptr %18, align 1
  %45 = trunc i8 %44 to i1
  %46 = getelementptr inbounds %class.TraceMemoryManagerStats, ptr %33, i32 0, i32 4
  %47 = zext i1 %45 to i8
  store i8 %47, ptr %46, align 1
  %48 = load i8, ptr %19, align 1
  %49 = trunc i8 %48 to i1
  %50 = getelementptr inbounds %class.TraceMemoryManagerStats, ptr %33, i32 0, i32 5
  %51 = zext i1 %49 to i8
  store i8 %51, ptr %50, align 2
  %52 = load i8, ptr %20, align 1
  %53 = trunc i8 %52 to i1
  %54 = getelementptr inbounds %class.TraceMemoryManagerStats, ptr %33, i32 0, i32 6
  %55 = zext i1 %53 to i8
  store i8 %55, ptr %54, align 1
  %56 = load i8, ptr %21, align 1
  %57 = trunc i8 %56 to i1
  %58 = getelementptr inbounds %class.TraceMemoryManagerStats, ptr %33, i32 0, i32 7
  %59 = zext i1 %57 to i8
  store i8 %59, ptr %58, align 4
  %60 = load i8, ptr %22, align 1
  %61 = trunc i8 %60 to i1
  %62 = getelementptr inbounds %class.TraceMemoryManagerStats, ptr %33, i32 0, i32 8
  %63 = zext i1 %61 to i8
  store i8 %63, ptr %62, align 1
  %64 = load i8, ptr %23, align 1
  %65 = trunc i8 %64 to i1
  %66 = getelementptr inbounds %class.TraceMemoryManagerStats, ptr %33, i32 0, i32 9
  %67 = zext i1 %65 to i8
  store i8 %67, ptr %66, align 2
  %68 = load i8, ptr %24, align 1
  %69 = trunc i8 %68 to i1
  %70 = getelementptr inbounds %class.TraceMemoryManagerStats, ptr %33, i32 0, i32 10
  %71 = zext i1 %69 to i8
  store i8 %71, ptr %70, align 1
  %72 = getelementptr inbounds %class.TraceMemoryManagerStats, ptr %33, i32 0, i32 0
  %73 = load ptr, ptr %72, align 8
  %74 = getelementptr inbounds %class.TraceMemoryManagerStats, ptr %33, i32 0, i32 4
  %75 = load i8, ptr %74, align 1
  %76 = trunc i8 %75 to i1
  %77 = getelementptr inbounds %class.TraceMemoryManagerStats, ptr %33, i32 0, i32 8
  %78 = load i8, ptr %77, align 1
  %79 = trunc i8 %78 to i1
  %80 = getelementptr inbounds %class.TraceMemoryManagerStats, ptr %33, i32 0, i32 5
  %81 = load i8, ptr %80, align 2
  %82 = trunc i8 %81 to i1
  %83 = getelementptr inbounds %class.TraceMemoryManagerStats, ptr %33, i32 0, i32 6
  %84 = load i8, ptr %83, align 1
  %85 = trunc i8 %84 to i1
  call void @_ZN13MemoryService8gc_beginEP15GCMemoryManagerbbbb(ptr noundef %73, i1 noundef zeroext %76, i1 noundef zeroext %79, i1 noundef zeroext %82, i1 noundef zeroext %85)
  ret void
}