; Function Attrs: mustprogress nounwind uwtable
define hidden void @_ZN23TraceMemoryManagerStats10initializeEP15GCMemoryManagerN7GCCause5CauseEPKcbbbbbbbb(ptr nocapture noundef nonnull writeonly align 8 dereferenceable(32) %0, ptr noundef nonnull %1, i32 noundef %2, ptr noundef %3, i1 noundef zeroext %4, i1 noundef zeroext %5, i1 noundef zeroext %6, i1 noundef zeroext %7, i1 noundef zeroext %8, i1 noundef zeroext %9, i1 noundef zeroext %10, i1 noundef zeroext %11) local_unnamed_addr #2 align 2 {
  %13 = insertelement <8 x i1> poison, i1 %4, i64 0
  %14 = insertelement <8 x i1> %13, i1 %5, i64 1
  %15 = insertelement <8 x i1> %14, i1 %6, i64 2
  %16 = insertelement <8 x i1> %15, i1 %7, i64 3
  %17 = insertelement <8 x i1> %16, i1 %8, i64 4
  %18 = insertelement <8 x i1> %17, i1 %9, i64 5
  %19 = insertelement <8 x i1> %18, i1 %10, i64 6
  %20 = insertelement <8 x i1> %19, i1 %11, i64 7
  store ptr %1, ptr %0, align 8
  %21 = getelementptr inbounds i8, ptr %0, i64 8
  store i32 %2, ptr %21, align 8
  %22 = getelementptr inbounds i8, ptr %0, i64 16
  store ptr %3, ptr %22, align 8
  %23 = getelementptr inbounds i8, ptr %0, i64 24
  %24 = zext <8 x i1> %20 to <8 x i8>
  store <8 x i8> %24, ptr %23, align 8
  tail call void @_ZN15GCMemoryManager8gc_beginEbbb(ptr noundef nonnull align 8 dereferenceable(191) %1, i1 noundef zeroext %5, i1 noundef zeroext %6, i1 noundef zeroext %9) #8
  br i1 %7, label %.preheader.i, label %_ZN13MemoryService8gc_beginEP15GCMemoryManagerbbbb.exit

.preheader.i:                                     ; preds = %12
  %25 = load ptr, ptr @_ZN13MemoryService11_pools_listE, align 8
  %26 = load i32, ptr %25, align 4
  %27 = icmp sgt i32 %26, 0
  br i1 %27, label %.lr.ph.i, label %_ZN13MemoryService8gc_beginEP15GCMemoryManagerbbbb.exit

.lr.ph.i:                                         ; preds = %.preheader.i, %.lr.ph.i
  %indvars.iv.i = phi i64 [ %indvars.iv.next.i, %.lr.ph.i ], [ 0, %.preheader.i ]
  %28 = phi ptr [ %33, %.lr.ph.i ], [ %25, %.preheader.i ]
  %29 = getelementptr inbounds i8, ptr %28, i64 8
  %30 = load ptr, ptr %29, align 8
  %31 = getelementptr inbounds ptr, ptr %30, i64 %indvars.iv.i
  %32 = load ptr, ptr %31, align 8
  tail call void @_ZN10MemoryPool24record_peak_memory_usageEv(ptr noundef nonnull align 8 dereferenceable(201) %32) #8
  %indvars.iv.next.i = add nuw nsw i64 %indvars.iv.i, 1
  %33 = load ptr, ptr @_ZN13MemoryService11_pools_listE, align 8
  %34 = load i32, ptr %33, align 4
  %35 = sext i32 %34 to i64
  %36 = icmp slt i64 %indvars.iv.next.i, %35
  br i1 %36, label %.lr.ph.i, label %_ZN13MemoryService8gc_beginEP15GCMemoryManagerbbbb.exit, !llvm.loop !13

_ZN13MemoryService8gc_beginEP15GCMemoryManagerbbbb.exit: ; preds = %.lr.ph.i, %12, %.preheader.i
  ret void
}